; Function Attrs: nounwind uwtable
define internal fastcc void @zend_ini_copy_typed_value(ptr nocapture noundef writeonly %0, i32 noundef %1, ptr nocapture noundef readonly %2, i32 noundef %3) unnamed_addr #0 {
  %switch.tableidx = add i32 %1, -270
  %5 = icmp ult i32 %switch.tableidx, 3
  br i1 %5, label %switch.lookup, label %6

6:                                                ; preds = %4
  %7 = sext i32 %3 to i64
  %8 = load i8, ptr getelementptr inbounds (%struct._zend_compiler_globals, ptr @compiler_globals, i64 0, i32 12), align 4
  %9 = and i8 %8, 1
  %.not = icmp eq i8 %9, 0
  %10 = and i64 %7, -8
  %11 = add nsw i64 %10, 32
  br i1 %.not, label %14, label %12

12:                                               ; preds = %6
  %13 = tail call noalias ptr @__zend_malloc(i64 noundef %11) #12
  br label %16

14:                                               ; preds = %6
  %15 = tail call noalias ptr @_emalloc(i64 noundef %11) #12
  br label %16

16:                                               ; preds = %14, %12
  %17 = phi ptr [ %13, %12 ], [ %15, %14 ]
  store i32 1, ptr %17, align 4
  %18 = shl i8 %8, 7
  %19 = or disjoint i8 %18, 22
  %20 = zext i8 %19 to i32
  %21 = getelementptr inbounds i8, ptr %17, i64 4
  store i32 %20, ptr %21, align 4
  %22 = getelementptr inbounds i8, ptr %17, i64 8
  store i64 0, ptr %22, align 8
  %23 = getelementptr inbounds i8, ptr %17, i64 16
  store i64 %7, ptr %23, align 8
  %24 = getelementptr inbounds i8, ptr %17, i64 24
  tail call void @llvm.memcpy.p0.p0.i64(ptr nonnull align 8 %24, ptr align 1 %2, i64 %7, i1 false)
  %25 = getelementptr inbounds [1 x i8], ptr %24, i64 0, i64 %7
  store i8 0, ptr %25, align 1
  store ptr %17, ptr %0, align 8
  br label %26

switch.lookup:                                    ; preds = %4
  %switch.offset = sub nsw i32 273, %1
  br label %26

26:                                               ; preds = %switch.lookup, %16
  %.sink = phi i32 [ 262, %16 ], [ %switch.offset, %switch.lookup ]
  %27 = getelementptr inbounds i8, ptr %0, i64 8
  store i32 %.sink, ptr %27, align 8
  ret void
}